Certificate:
    Data:
        Version: 3 (0x2)
        Serial Number:
            3e:68:29:7d:a7:73:ea:9d:57:9d:4e:c9:7d:1e:2c:f9
    Signature Algorithm: sha256WithRSAEncryption
        Issuer: C=US, O=CaMeLz, CN=CaMeLz Root Certification Authority
        Validity
            Not Before: Apr 19 16:22:13 2022 GMT
            Not After : Apr 18 16:22:13 2032 GMT
        Subject: C=US, O=CaMeLz, CN=CaMeLz User Certification Authority
        Subject Public Key Info:
            Public Key Algorithm: rsaEncryption
                Public-Key: (2048 bit)
                Modulus:
                    00:af:b8:71:3b:b5:4a:4b:ee:d5:d9:6a:15:62:73:
                    93:5c:47:8b:0e:0f:e6:1e:1b:12:33:fa:6c:bf:d2:
                    0c:13:6d:f8:28:09:32:98:41:ea:c7:4f:dd:49:0d:
                    e2:e8:32:1f:27:6f:ab:dc:c9:35:42:34:ef:dc:dd:
                    b5:e3:26:e7:c5:15:59:4a:be:9f:8d:43:86:34:36:
                    49:92:cd:a2:eb:53:c9:de:63:87:4c:54:da:0e:53:
                    45:c4:e5:a0:67:53:e3:df:29:6a:50:fe:1f:31:1d:
                    09:db:8a:fa:dc:93:a9:eb:10:34:06:74:67:b0:75:
                    47:63:5c:ff:12:37:9c:8d:fa:8e:9a:90:f6:af:b5:
                    f1:40:c5:21:ef:b1:79:cb:c6:4a:d5:cf:c2:c2:ff:
                    b2:67:a5:6d:f3:b2:8b:e4:dd:ac:36:f8:d2:29:1f:
                    79:8a:1e:ce:ee:84:dc:0a:50:bd:e1:3f:8f:70:6d:
                    9b:66:10:0d:40:0b:90:f1:cb:a1:5a:4b:b6:32:8f:
                    8b:cd:d3:bb:91:44:a4:d5:ea:2e:a1:c3:b8:2a:4e:
                    61:c9:0e:5b:72:42:14:80:72:66:d5:d0:ed:fb:76:
                    23:cc:91:71:94:ee:58:76:30:f9:3b:1a:b5:61:e3:
                    54:6b:c1:b6:9b:f4:c8:0c:b5:df:5e:de:ce:68:b0:
                    30:89
                Exponent: 65537 (0x10001)
        X509v3 extensions:
            X509v3 Key Usage: critical
                Digital Signature, Certificate Sign, CRL Sign
            X509v3 Extended Key Usage:
                E-mail Protection, TLS Web Client Authentication, Any Extended Key Usage
            X509v3 Basic Constraints: critical
                CA:TRUE, pathlen:0
            X509v3 Subject Key Identifier:
                4D:D4:6A:D4:5E:DC:A1:64:75:CA:88:D1:FC:7E:D1:E7:75:5E:EC:4F
            X509v3 Authority Key Identifier:
                keyid:17:CB:2E:25:D6:42:21:A9:6A:AF:E7:55:A1:CC:F5:BE:17:3B:C5:32

            Authority Information Access:
                OCSP - URI:http://ocsp.camelz.io
                CA Issuers - URI:http://crt.camelz.io/CaMeLzRootCertificationAuthority.crt

            X509v3 CRL Distribution Points:

                Full Name:
                  URI:http://crl.camelz.io/CaMeLzRootCertificationAuthority.crl

            X509v3 Name Constraints: critical
                Permitted:
                  DNS:camelz.io
                  email:camelz.io
                Excluded:
                  IP:0.0.0.0/0.0.0.0
                  IP:0:0:0:0:0:0:0:0/0:0:0:0:0:0:0:0

    Signature Algorithm: sha256WithRSAEncryption
         14:06:9b:88:a8:4f:0c:d2:cf:9c:d3:2c:3c:8f:ba:a0:d9:a2:
         97:12:03:12:83:4d:5f:04:e1:58:61:1f:e6:37:5f:df:dc:f9:
         42:3f:14:4d:66:19:89:f8:dd:75:41:17:c4:80:29:c3:6c:93:
         4e:7d:ea:45:79:b7:61:01:00:8e:41:08:95:6b:ca:4e:b4:2d:
         0c:34:f6:ad:12:37:bc:39:b6:c6:40:a1:e2:b7:df:1f:58:20:
         d2:0e:c8:b5:b0:4e:fb:08:77:5c:31:d4:8a:df:6f:ba:1b:2c:
         39:ca:bb:bc:14:d3:bd:e4:b5:5d:c4:2c:a4:46:cf:a4:96:55:
         e1:ef:02:8f:32:92:64:55:60:52:30:a7:4e:a2:f2:62:5d:9a:
         8e:e5:e4:98:aa:4c:cf:0f:7c:20:0d:ee:09:87:1e:b0:d5:03:
         08:cb:28:0f:9d:ef:fa:8f:81:34:cd:1d:34:96:55:8c:5b:21:
         be:75:6c:35:da:65:39:23:fd:bf:29:b3:26:89:4c:3e:82:22:
         5a:1a:c4:e6:8c:5b:f1:4e:f8:a6:33:f8:66:18:a6:e0:13:f1:
         d0:28:00:52:bb:8d:06:4f:09:5f:f4:17:b1:15:4a:7c:9d:b9:
         94:cf:a8:d7:17:00:ff:97:e7:ce:86:d5:f4:1b:82:12:88:b9:
         ca:92:56:d7:5b:a3:4d:11:9a:f9:53:6d:99:63:79:99:d7:fc:
         9a:b5:b4:ff:d9:ed:2e:8e:82:a7:07:3c:61:fd:38:f8:9c:fc:
         9b:78:65:39:e6:46:25:5e:5d:18:95:25:c9:89:d1:91:01:e0:
         da:72:e0:85:3f:4b:5f:80:d2:a9:78:63:bd:2c:c8:ea:5d:66:
         e1:67:99:24:fc:a6:fc:b0:66:2d:75:d5:34:87:83:54:7e:5b:
         ca:4b:ad:98:7f:d9:2b:bb:cd:01:79:63:2c:ad:41:7e:76:54:
         60:fc:a4:52:6f:a5:88:cf:1f:24:fb:cb:46:2b:c6:2a:36:dd:
         35:3f:72:4f:fc:2a:82:34:b8:5c:5d:7b:fe:24:c7:a1:9b:4a:
         f4:0b:f2:79:ca:e1:43:77:17:1a:c3:41:56:9d:9d:89:1d:fc:
         a5:c6:8c:a8:70:5a:40:5b:47:e7:00:cc:7d:09:a9:32:10:ce:
         f6:07:c5:2f:f3:03:e4:27:59:7b:59:b9:fc:07:fa:fc:10:56:
         dd:51:d4:8d:13:bf:d1:a2:bd:2d:c2:25:7e:d7:5a:15:69:40:
         9a:88:88:76:9e:d0:e7:87:27:d2:00:70:2b:ac:51:91:7e:86:
         d3:31:bd:4d:e1:cf:0d:77:2e:c5:1d:cd:08:10:ae:cf:04:33:
         08:9e:4f:24:b4:4a:17:16
-----BEGIN CERTIFICATE-----
MIIF0zCCA7ugAwIBAgIQPmgpfadz6p1XnU7JfR4s+TANBgkqhkiG9w0BAQsFADBM
MQswCQYDVQQGEwJVUzEPMA0GA1UECgwGQ2FNZUx6MSwwKgYDVQQDDCNDYU1lTHog
Um9vdCBDZXJ0aWZpY2F0aW9uIEF1dGhvcml0eTAeFw0yMjA0MTkxNjIyMTNaFw0z
MjA0MTgxNjIyMTNaMEwxCzAJBgNVBAYTAlVTMQ8wDQYDVQQKDAZDYU1lTHoxLDAq
BgNVBAMMI0NhTWVMeiBVc2VyIENlcnRpZmljYXRpb24gQXV0aG9yaXR5MIIBIjAN
BgkqhkiG9w0BAQEFAAOCAQ8AMIIBCgKCAQEAr7hxO7VKS+7V2WoVYnOTXEeLDg/m
HhsSM/psv9IME234KAkymEHqx0/dSQ3i6DIfJ2+r3Mk1QjTv3N214ybnxRVZSr6f
jUOGNDZJks2i61PJ3mOHTFTaDlNFxOWgZ1Pj3ylqUP4fMR0J24r63JOp6xA0BnRn
sHVHY1z/EjecjfqOmpD2r7XxQMUh77F5y8ZK1c/Cwv+yZ6Vt87KL5N2sNvjSKR95
ih7O7oTcClC94T+PcG2bZhANQAuQ8cuhWku2Mo+LzdO7kUSk1eouocO4Kk5hyQ5b
ckIUgHJm1dDt+3YjzJFxlO5YdjD5Oxq1YeNUa8G2m/TIDLXfXt7OaLAwiQIDAQAB
o4IBrzCCAaswDgYDVR0PAQH/BAQDAgGGMCMGA1UdJQQcMBoGCCsGAQUFBwMEBggr
BgEFBQcDAgYEVR0lADASBgNVHRMBAf8ECDAGAQH/AgEAMB0GA1UdDgQWBBRN1GrU
XtyhZHXKiNH8ftHndV7sTzAfBgNVHSMEGDAWgBQXyy4l1kIhqWqv51WhzPW+FzvF
MjB4BggrBgEFBQcBAQRsMGowIQYIKwYBBQUHMAGGFWh0dHA6Ly9vY3NwLmNhbWVs
ei5pbzBFBggrBgEFBQcwAoY5aHR0cDovL2NydC5jYW1lbHouaW8vQ2FNZUx6Um9v
dENlcnRpZmljYXRpb25BdXRob3JpdHkuY3J0MEoGA1UdHwRDMEEwP6A9oDuGOWh0
dHA6Ly9jcmwuY2FtZWx6LmlvL0NhTWVMelJvb3RDZXJ0aWZpY2F0aW9uQXV0aG9y
aXR5LmNybDBaBgNVHR4BAf8EUDBOoBowC4IJY2FtZWx6LmlvMAuBCWNhbWVsei5p
b6EwMAqHCAAAAAAAAAAAMCKHIAAAAAAAAAAAAAAAAAAAAAAAAAAAAAAAAAAAAAAA
AAAAMA0GCSqGSIb3DQEBCwUAA4ICAQAUBpuIqE8M0s+c0yw8j7qg2aKXEgMSg01f
BOFYYR/mN1/f3PlCPxRNZhmJ+N11QRfEgCnDbJNOfepFebdhAQCOQQiVa8pOtC0M
NPatEje8ObbGQKHit98fWCDSDsi1sE77CHdcMdSK32+6Gyw5yru8FNO95LVdxCyk
Rs+kllXh7wKPMpJkVWBSMKdOovJiXZqO5eSYqkzPD3wgDe4Jhx6w1QMIyygPne/6
j4E0zR00llWMWyG+dWw12mU5I/2/KbMmiUw+giJaGsTmjFvxTvimM/hmGKbgE/HQ
KABSu40GTwlf9BexFUp8nbmUz6jXFwD/l+fOhtX0G4ISiLnKklbXW6NNEZr5U22Z
Y3mZ1/yatbT/2e0ujoKnBzxh/Tj4nPybeGU55kYlXl0YlSXJidGRAeDacuCFP0tf
gNKpeGO9LMjqXWbhZ5kk/Kb8sGYtddU0h4NUflvKS62Yf9kru80BeWMsrUF+dlRg
/KRSb6WIzx8k+8tGK8YqNt01P3JP/CqCNLhcXXv+JMehm0r0C/J5yuFDdxcaw0FW
nZ2JHfylxoyocFpAW0fnAMx9CakyEM72B8Uv8wPkJ1l7Wbn8B/r8EFbdUdSNE7/R
or0twiV+11oVaUCaiIh2ntDnhyfSAHArrFGRfobTMb1N4c8Ndy7FHc0IEK7PBDMI
nk8ktEoXFg==
-----END CERTIFICATE-----