Certificate:
    Data:
        Version: 3 (0x2)
        Serial Number:
            55:d1:96:52:91:1e:14:9e:31:ba:eb:99:ea:9a:bc:71
    Signature Algorithm: sha256WithRSAEncryption
        Issuer: C=US, O=DXC Technology Company, OU=DXC Analytics Platform, CN=DXC Analytics Platform Root CA
        Validity
            Not Before: Mar  9 08:47:44 2020 GMT
            Not After : Jun 12 08:47:44 2022 GMT
        Subject: C=US, O=DXC Technology Company, OU=DXC Analytics Platform, CN=DXC Analytics Platform Issuing CA
        Subject Public Key Info:
            Public Key Algorithm: rsaEncryption
                Public-Key: (2048 bit)
                Modulus:
                    00:b9:eb:bd:ae:be:b2:6f:08:0c:fc:de:c6:6f:37:
                    0c:8f:e3:11:b3:09:4a:7d:b3:c8:68:a3:9d:2b:d8:
                    70:4c:db:65:bd:6c:d6:b2:1b:81:cb:cb:04:ac:3a:
                    61:b0:06:83:ec:c6:92:37:a1:92:8c:2a:31:49:11:
                    e7:72:a7:51:3e:f7:d6:02:9e:eb:a7:bd:4e:16:7f:
                    da:dd:74:5b:a3:68:d6:d6:e5:2c:2c:b0:f4:72:a5:
                    ca:7e:6f:8a:76:50:2b:38:cd:4c:41:b4:c2:d7:bd:
                    d5:a7:c7:a2:b2:4d:bd:63:86:12:70:fe:8c:12:a9:
                    3e:2a:01:54:ba:85:ad:02:b0:2b:06:04:64:be:4a:
                    ba:25:8a:a2:70:3c:9a:25:ce:ab:69:77:b5:d3:66:
                    c1:cb:30:cf:52:b6:d4:29:0a:5e:73:67:3d:a3:1e:
                    f9:a5:5a:22:95:98:4e:0a:31:4f:bd:93:7c:94:2e:
                    f4:44:a7:26:b0:ab:4c:44:39:38:b8:20:37:4b:3c:
                    64:5e:04:5a:24:72:fd:6e:71:99:2a:06:c4:2d:fa:
                    7b:1d:c2:b2:a9:6e:6e:33:ff:25:45:6b:a7:66:f1:
                    21:ae:31:ed:3f:27:bf:b1:1f:e7:a3:41:7a:6f:9a:
                    2d:bf:3f:0a:cb:4e:4d:8e:f5:1b:96:a5:4e:3b:37:
                    bc:17
                Exponent: 65537 (0x10001)
        X509v3 extensions:
            X509v3 CRL Distribution Points: 

                Full Name:
                  URI:http://pki.m1.dxc-ap.com/DXC_Analyticsi_Platformi_Root_CA.crl

            X509v3 Basic Constraints: critical
                CA:TRUE, pathlen:1
            X509v3 Subject Key Identifier: 
                6F:DA:50:58:37:4D:90:2F:72:0E:07:CE:67:14:07:B6:B4:AB:69:FE
            X509v3 Authority Key Identifier: 
                keyid:F0:85:E2:8F:A1:09:4B:65:FB:1C:86:2D:93:92:72:0D:00:F6:C0:1E

            X509v3 Key Usage: critical
                Digital Signature, Certificate Sign, CRL Sign
    Signature Algorithm: sha256WithRSAEncryption
         96:c7:7a:0b:b9:bd:40:a7:a9:95:ff:19:da:dc:e5:46:5e:04:
         c3:18:1f:91:b8:02:8f:9b:69:72:a3:bc:f6:aa:fb:f3:3a:16:
         5f:a1:fa:57:aa:03:3a:67:f7:80:d8:81:fb:51:53:ec:da:7c:
         74:34:17:85:c7:c1:0c:3d:eb:81:1d:4d:fb:ce:58:ce:60:2e:
         5a:ed:dc:9e:97:03:f8:ad:1e:30:a8:0a:df:24:ba:37:75:a1:
         45:06:fe:12:e2:79:50:fc:eb:35:c1:2b:d8:47:32:05:b7:59:
         74:b9:93:dc:d5:76:5e:db:b3:3a:a6:d9:52:7a:e7:0a:e0:b8:
         ac:d9:c8:7c:f4:59:6d:c3:2e:5f:96:6d:6a:4d:b2:87:22:a7:
         0e:df:87:f8:5a:08:18:d2:47:64:5b:b0:dd:dd:7f:ad:de:32:
         76:84:40:c0:4b:da:9b:67:1d:51:90:e3:bc:87:72:14:5a:0d:
         e2:4b:26:24:f9:08:4c:55:02:aa:4a:dd:53:52:2c:5b:18:90:
         89:95:e1:3d:d9:e1:80:01:9a:c8:0a:0d:ec:0d:9a:0f:5d:cf:
         ad:a3:37:84:67:76:a1:a3:08:95:fa:d2:14:38:bd:55:d3:06:
         cb:e0:37:f2:b1:dd:6b:de:2e:c7:b4:90:1b:1f:a7:c0:3e:0e:
         c6:42:c1:ef:72:c7:d4:75:04:d3:a8:f4:e0:5b:ab:25:f9:a8:
         4a:c4:2c:48:2a:c6:cb:99:fc:a6:5a:da:19:6c:09:d1:b7:89:
         46:90:e5:28:04:f5:96:6a:b6:5a:59:6b:d7:e5:0a:4e:f2:7b:
         34:48:07:a4:1f:5b:e8:2f:e0:86:9e:00:93:b5:3a:9b:88:28:
         58:47:3b:3e:8b:f0:42:bd:0a:4f:50:2f:b4:da:c3:1d:c9:05:
         66:6d:c7:4f:ca:3c:df:ce:e0:ca:81:ec:b9:b6:54:57:71:3f:
         06:0a:56:18:37:04:12:92:a8:4f:b6:83:6f:20:7d:e4:fa:c9:
         8c:75:c7:44:e2:ff:98:50:f0:23:60:a8:9a:f1:71:31:ce:b1:
         ae:8f:ac:71:3e:75:8a:b4:05:5d:f1:1d:61:44:b9:fb:49:11:
         57:49:d4:03:f3:bd:32:33:d2:54:53:d9:85:84:18:f7:d3:a4:
         b6:f2:45:c3:08:a5:6f:62:07:5e:19:04:de:e5:e8:ea:ab:4d:
         cc:b8:49:7f:fc:7b:d3:26:ec:30:22:39:77:b7:02:4c:9b:0f:
         3d:82:d0:ad:bd:6b:f9:b3:9b:b7:6f:32:76:87:e1:db:63:e2:
         63:6a:55:38:f5:80:01:ef:52:83:de:eb:7e:b2:42:23:9c:1e:
         7a:e0:c0:29:7c:19:5d:a8
-----BEGIN CERTIFICATE-----
MIIFNTCCAx2gAwIBAgIQVdGWUpEeFJ4xuuuZ6pq8cTANBgkqhkiG9w0BAQsFADB4
MQswCQYDVQQGEwJVUzEfMB0GA1UECgwWRFhDIFRlY2hub2xvZ3kgQ29tcGFueTEf
MB0GA1UECwwWRFhDIEFuYWx5dGljcyBQbGF0Zm9ybTEnMCUGA1UEAwweRFhDIEFu
YWx5dGljcyBQbGF0Zm9ybSBSb290IENBMB4XDTIwMDMwOTA4NDc0NFoXDTIyMDYx
MjA4NDc0NFowezELMAkGA1UEBhMCVVMxHzAdBgNVBAoMFkRYQyBUZWNobm9sb2d5
IENvbXBhbnkxHzAdBgNVBAsMFkRYQyBBbmFseXRpY3MgUGxhdGZvcm0xKjAoBgNV
BAMMIURYQyBBbmFseXRpY3MgUGxhdGZvcm0gSXNzdWluZyBDQTCCASIwDQYJKoZI
hvcNAQEBBQADggEPADCCAQoCggEBALnrva6+sm8IDPzexm83DI/jEbMJSn2zyGij
nSvYcEzbZb1s1rIbgcvLBKw6YbAGg+zGkjehkowqMUkR53KnUT731gKe66e9ThZ/
2t10W6No1tblLCyw9HKlyn5vinZQKzjNTEG0wte91afHorJNvWOGEnD+jBKpPioB
VLqFrQKwKwYEZL5KuiWKonA8miXOq2l3tdNmwcswz1K21CkKXnNnPaMe+aVaIpWY
TgoxT72TfJQu9ESnJrCrTEQ5OLggN0s8ZF4EWiRy/W5xmSoGxC36ex3CsqlubjP/
JUVrp2bxIa4x7T8nv7Ef56NBem+aLb8/CstOTY71G5alTjs3vBcCAwEAAaOBtzCB
tDBOBgNVHR8ERzBFMEOgQaA/hj1odHRwOi8vcGtpLm0xLmR4Yy1hcC5jb20vRFhD
X0FuYWx5dGljc2lfUGxhdGZvcm1pX1Jvb3RfQ0EuY3JsMBIGA1UdEwEB/wQIMAYB
Af8CAQEwHQYDVR0OBBYEFG/aUFg3TZAvcg4HzmcUB7a0q2n+MB8GA1UdIwQYMBaA
FPCF4o+hCUtl+xyGLZOScg0A9sAeMA4GA1UdDwEB/wQEAwIBhjANBgkqhkiG9w0B
AQsFAAOCAgEAlsd6C7m9QKeplf8Z2tzlRl4EwxgfkbgCj5tpcqO89qr78zoWX6H6
V6oDOmf3gNiB+1FT7Np8dDQXhcfBDD3rgR1N+85YzmAuWu3cnpcD+K0eMKgK3yS6
N3WhRQb+EuJ5UPzrNcEr2EcyBbdZdLmT3NV2XtuzOqbZUnrnCuC4rNnIfPRZbcMu
X5Ztak2yhyKnDt+H+FoIGNJHZFuw3d1/rd4ydoRAwEvam2cdUZDjvIdyFFoN4ksm
JPkITFUCqkrdU1IsWxiQiZXhPdnhgAGayAoN7A2aD13PraM3hGd2oaMIlfrSFDi9
VdMGy+A38rHda94ux7SQGx+nwD4OxkLB73LH1HUE06j04FurJfmoSsQsSCrGy5n8
plraGWwJ0beJRpDlKAT1lmq2Wllr1+UKTvJ7NEgHpB9b6C/ghp4Ak7U6m4goWEc7
PovwQr0KT1AvtNrDHckFZm3HT8o8387gyoHsubZUV3E/BgpWGDcEEpKoT7aDbyB9
5PrJjHXHROL/mFDwI2ComvFxMc6xro+scT51irQFXfEdYUS5+0kRV0nUA/O9MjPS
VFPZhYQY99OktvJFwwilb2IHXhkE3uXo6qtNzLhJf/x70ybsMCI5d7cCTJsPPYLQ
rb1r+bObt28ydofh22PiY2pVOPWAAe9Sg97rfrJCI5weeuDAKXwZXag=
-----END CERTIFICATE-----
