Certificate:
    Data:
        Version: 3 (0x2)
        Serial Number:
            4c:b0:59:f0:f5:12:6e:ad:02:59:d2:b4:17:e7:3f:6b
    Signature Algorithm: sha256WithRSAEncryption
        Issuer: C=US, O=DXC Technology Company, OU=DXC Analytics Platform, CN=DXC Analytics Platform Issuing CA
        Validity
            Not Before: Mar  9 08:56:27 2020 GMT
            Not After : Mar  7 08:56:27 2030 GMT
        Subject: C=US, O=DXC Technology Company, OU=DXC Analytics Platform, CN=vpn.us-east-2.camelz.io
        Subject Public Key Info:
            Public Key Algorithm: rsaEncryption
                Public-Key: (2048 bit)
                Modulus:
                    00:d4:21:2f:08:82:6b:3b:8f:de:35:63:db:81:85:
                    03:76:c1:93:bf:33:15:03:55:a4:be:42:f8:b2:90:
                    4e:0d:03:2f:0d:49:90:4f:33:e9:c3:d0:1d:d9:be:
                    83:b9:e4:a7:ec:d5:24:11:88:66:18:05:98:41:7e:
                    e6:58:5d:d5:61:2d:68:49:c8:0b:fb:20:a7:60:4f:
                    75:11:3b:50:42:f3:56:18:87:52:1b:90:ca:af:ba:
                    5c:00:25:0a:8d:b6:c2:09:e6:16:e6:23:f8:32:73:
                    53:15:14:58:c5:20:1d:39:8d:46:7f:26:38:23:f6:
                    2f:dc:45:2e:49:11:10:65:0d:3a:51:0d:2d:fd:13:
                    be:3a:63:16:dc:99:e3:b7:55:61:4c:cc:5d:65:24:
                    45:21:26:f5:22:17:c4:96:f2:f1:a4:32:ba:85:5b:
                    99:4c:ad:20:3e:ac:ad:9f:7f:21:e6:ba:34:a7:61:
                    0e:c5:3d:94:7b:6e:89:12:0a:7f:2b:62:ea:8f:60:
                    e9:32:72:91:73:d0:ef:52:48:18:03:b0:49:b6:b6:
                    50:67:b3:50:99:aa:31:a4:86:1c:fe:b1:1b:11:74:
                    ce:4f:3a:46:bc:ff:c9:8f:24:f3:83:4d:05:63:8f:
                    8f:a9:fb:27:ca:14:2f:8b:fb:a4:b7:1b:a7:34:ef:
                    d6:2f
                Exponent: 65537 (0x10001)
        X509v3 extensions:
            X509v3 CRL Distribution Points: 

                Full Name:
                  URI:http://pki.camelz.io/CaMeLz_Root_CA.crl

            X509v3 Basic Constraints: 
                CA:FALSE
            X509v3 Subject Key Identifier: 
                5B:A4:61:1F:1F:43:1A:79:FB:E6:41:E8:21:B8:73:50:C7:C2:51:02
            X509v3 Authority Key Identifier: 
                keyid:6F:DA:50:58:37:4D:90:2F:72:0E:07:CE:67:14:07:B6:B4:AB:69:FE
                DirName:/C=US/O=DXC Technology Company/OU=DXC Analytics Platform/CN=DXC Analytics Platform Root CA
                serial:55:D1:96:52:91:1E:14:9E:31:BA:EB:99:EA:9A:BC:71

            X509v3 Extended Key Usage: 
                TLS Web Server Authentication
            X509v3 Key Usage: 
                Digital Signature, Key Encipherment
            X509v3 Subject Alternative Name: 
                DNS:vpn.us-east-2.camelz.io
    Signature Algorithm: sha256WithRSAEncryption
         02:55:d6:04:09:2b:f7:0a:f7:9f:09:00:ef:e8:38:12:65:96:
         df:7f:f1:9c:9c:d1:f0:0b:c9:85:cb:06:99:44:d7:ad:c0:a6:
         e3:da:c8:33:4c:5e:2a:8d:77:31:0a:73:2c:48:b6:d5:a8:c8:
         1a:0d:93:d2:5b:ce:58:07:93:0f:74:a7:6b:5b:a7:b2:9e:bd:
         83:2a:a6:83:f2:aa:64:4b:f6:2b:5b:8e:0f:15:63:a2:23:b6:
         da:9c:a1:ea:88:70:d5:b1:dd:4c:6d:bf:e4:38:bb:73:24:79:
         46:8e:08:0d:6f:1d:fe:f0:f5:79:73:a9:6d:6d:d1:d8:74:7e:
         fa:ed:e3:52:ad:1d:35:d6:5d:b8:c4:18:51:9c:60:5a:6c:ea:
         8f:df:2c:8d:1a:64:64:bc:64:d0:7d:2d:46:47:d2:fa:49:4e:
         a6:d3:14:26:c1:30:b6:2e:6e:0f:32:17:bc:20:c1:f1:cd:31:
         e2:18:dd:0b:fd:44:7c:81:73:b3:d3:40:75:ac:a2:5f:0e:7d:
         6b:84:f2:cf:d3:7a:88:e4:6b:37:46:60:f9:b1:ee:99:8e:08:
         0f:69:99:fd:44:9b:36:28:c4:5b:3f:a0:98:81:86:8e:5f:3b:
         4e:73:d9:3d:da:b1:04:c7:b3:15:4a:66:d2:ab:da:4f:11:91:
         0e:3d:2d:c4
-----BEGIN CERTIFICATE-----
MIIE9jCCA96gAwIBAgIQTLBZ8PUSbq0CWdK0F+c/azANBgkqhkiG9w0BAQsFADB7
MQswCQYDVQQGEwJVUzEfMB0GA1UECgwWRFhDIFRlY2hub2xvZ3kgQ29tcGFueTEf
MB0GA1UECwwWRFhDIEFuYWx5dGljcyBQbGF0Zm9ybTEqMCgGA1UEAwwhRFhDIEFu
YWx5dGljcyBQbGF0Zm9ybSBJc3N1aW5nIENBMB4XDTIwMDMwOTA4NTYyN1oXDTMw
MDMwNzA4NTYyN1owdTELMAkGA1UEBhMCVVMxHzAdBgNVBAoMFkRYQyBUZWNobm9s
b2d5IENvbXBhbnkxHzAdBgNVBAsMFkRYQyBBbmFseXRpY3MgUGxhdGZvcm0xJDAi
BgNVBAMMG3Zwbi51cy1lYXN0LTIubTEuZHhjLWFwLmNvbTCCASIwDQYJKoZIhvcN
AQEBBQADggEPADCCAQoCggEBANQhLwiCazuP3jVj24GFA3bBk78zFQNVpL5C+LKQ
Tg0DLw1JkE8z6cPQHdm+g7nkp+zVJBGIZhgFmEF+5lhd1WEtaEnIC/sgp2BPdRE7
UELzVhiHUhuQyq+6XAAlCo22wgnmFuYj+DJzUxUUWMUgHTmNRn8mOCP2L9xFLkkR
EGUNOlENLf0TvjpjFtyZ47dVYUzMXWUkRSEm9SIXxJby8aQyuoVbmUytID6srZ9/
Iea6NKdhDsU9lHtuiRIKfyti6o9g6TJykXPQ71JIGAOwSba2UGezUJmqMaSGHP6x
GxF0zk86Rrz/yY8k84NNBWOPj6n7J8oUL4v7pLcbpzTv1i8CAwEAAaOCAXowggF2
MEwGA1UdHwRFMEMwQaA/oD2GO2h0dHA6Ly9wa2kubTEuZHhjLWFwLmNvbS9EWENf
QW5hbHl0aWNzX1BsYXRmb3JtX1Jvb3RfQ0EuY3JsMAkGA1UdEwQCMAAwHQYDVR0O
BBYEFFukYR8fQxp5++ZB6CG4c1DHwlECMIGxBgNVHSMEgakwgaaAFG/aUFg3TZAv
cg4HzmcUB7a0q2n+oXykejB4MQswCQYDVQQGEwJVUzEfMB0GA1UECgwWRFhDIFRl
Y2hub2xvZ3kgQ29tcGFueTEfMB0GA1UECwwWRFhDIEFuYWx5dGljcyBQbGF0Zm9y
bTEnMCUGA1UEAwweRFhDIEFuYWx5dGljcyBQbGF0Zm9ybSBSb290IENBghBV0ZZS
kR4UnjG665nqmrxxMBMGA1UdJQQMMAoGCCsGAQUFBwMBMAsGA1UdDwQEAwIFoDAm
BgNVHREEHzAdght2cG4udXMtZWFzdC0yLm0xLmR4Yy1hcC5jb20wDQYJKoZIhvcN
AQELBQADggEBAAJV1gQJK/cK958JAO/oOBJllt9/8Zyc0fALyYXLBplE163ApuPa
yDNMXiqNdzEKcyxIttWoyBoNk9JbzlgHkw90p2tbp7KevYMqpoPyqmRL9itbjg8V
Y6IjttqcoeqIcNWx3Uxtv+Q4u3MkeUaOCA1vHf7w9XlzqW1t0dh0fvrt41KtHTXW
XbjEGFGcYFps6o/fLI0aZGS8ZNB9LUZH0vpJTqbTFCbBMLYubg8yF7wgwfHNMeIY
3Qv9RHyBc7PTQHWsol8OfWuE8s/TeojkazdGYPmx7pmOCA9pmf1EmzYoxFs/oJiB
ho5fO05z2T3asQTHsxVKZtKr2k8RkQ49LcQ=
-----END CERTIFICATE-----
